target datalayout = "e-m:e-p270:32:32-p271:32:32-p272:64:64-i64:64-i128:128-f80:128-n8:16:32:64-S128"
target triple = "x86_64-pc-linux-gnu"

%struct.EVP_AES_KEY = type { %union.anon, ptr, %union.anon.0 }
%union.anon = type { double, [240 x i8] }
%union.anon.0 = type { ptr }

@OPENSSL_ia32cap_P = external global [0 x i32], align 4
@.str = private unnamed_addr constant [30 x i8] c"../openssl/crypto/evp/e_aes.c\00", align 1
@__func__.aes_init_key = private unnamed_addr constant [13 x i8] c"aes_init_key\00", align 1

; Function Attrs: nounwind uwtable
define internal i32 @aes_init_key(ptr noundef %0, ptr noundef %1, ptr noundef %2, i32 noundef %3) #0 {
  %5 = alloca i32, align 4
  %6 = alloca ptr, align 8
  %7 = alloca ptr, align 8
  %8 = alloca ptr, align 8
  %9 = alloca i32, align 4
  %10 = alloca i32, align 4
  %11 = alloca i32, align 4
  %12 = alloca ptr, align 8
  %13 = alloca i32, align 4
  %14 = alloca i32, align 4
  store ptr %0, ptr %6, align 8, !tbaa !7
  store ptr %1, ptr %7, align 8, !tbaa !10
  store ptr %2, ptr %8, align 8, !tbaa !10
  store i32 %3, ptr %9, align 4, !tbaa !3
  call void @llvm.lifetime.start.p0(i64 4, ptr %10) #4
  call void @llvm.lifetime.start.p0(i64 4, ptr %11) #4
  call void @llvm.lifetime.start.p0(i64 8, ptr %12) #4
  %15 = load ptr, ptr %6, align 8, !tbaa !7
  %16 = call ptr @EVP_CIPHER_CTX_get_cipher_data(ptr noundef %15)
  store ptr %16, ptr %12, align 8, !tbaa !12
  call void @llvm.lifetime.start.p0(i64 4, ptr %13) #4
  %17 = load ptr, ptr %6, align 8, !tbaa !7
  %18 = call i32 @EVP_CIPHER_CTX_get_key_length(ptr noundef %17)
  %19 = mul nsw i32 %18, 8
  store i32 %19, ptr %13, align 4, !tbaa !3
  %20 = load i32, ptr %13, align 4, !tbaa !3
  %21 = icmp sle i32 %20, 0
  br i1 %21, label %22, label %23

22:                                               ; preds = %4
  call void @ERR_new()
  call void @ERR_set_debug(ptr noundef @.str, i32 noundef 2411, ptr noundef @__func__.aes_init_key)
  call void (i32, i32, ptr, ...) @ERR_set_error(i32 noundef 6, i32 noundef 130, ptr noundef null)
  store i32 0, ptr %5, align 4
  store i32 1, ptr %14, align 4
  br label %138

23:                                               ; preds = %4
  %24 = load ptr, ptr %6, align 8, !tbaa !7
  %25 = call ptr @EVP_CIPHER_CTX_get0_cipher(ptr noundef %24)
  %26 = call i32 @EVP_CIPHER_get_mode(ptr noundef %25)
  store i32 %26, ptr %11, align 4, !tbaa !3
  %27 = load i32, ptr %11, align 4, !tbaa !3
  %28 = icmp eq i32 %27, 1
  br i1 %28, label %32, label %29

29:                                               ; preds = %23
  %30 = load i32, ptr %11, align 4, !tbaa !3
  %31 = icmp eq i32 %30, 2
  br i1 %31, label %32, label %84

32:                                               ; preds = %29, %23
  %33 = load i32, ptr %9, align 4, !tbaa !3
  %34 = icmp ne i32 %33, 0
  br i1 %34, label %84, label %35

35:                                               ; preds = %32
  %36 = load i32, ptr getelementptr inbounds ([0 x i32], ptr @OPENSSL_ia32cap_P, i64 0, i64 1), align 4, !tbaa !3
  %37 = and i32 %36, 512
  %38 = icmp ne i32 %37, 0
  br i1 %38, label %39, label %52

39:                                               ; preds = %35
  %40 = load i32, ptr %11, align 4, !tbaa !3
  %41 = icmp eq i32 %40, 2
  br i1 %41, label %42, label %52

42:                                               ; preds = %39
  %43 = load ptr, ptr %7, align 8, !tbaa !10
  %44 = load i32, ptr %13, align 4, !tbaa !3
  %45 = load ptr, ptr %12, align 8, !tbaa !12
  %46 = getelementptr inbounds nuw %struct.EVP_AES_KEY, ptr %45, i32 0, i32 0
  %47 = call i32 @AES_set_decrypt_key(ptr noundef %43, i32 noundef %44, ptr noundef %46)
  store i32 %47, ptr %10, align 4, !tbaa !3
  %48 = load ptr, ptr %12, align 8, !tbaa !12
  %49 = getelementptr inbounds nuw %struct.EVP_AES_KEY, ptr %48, i32 0, i32 1
  store ptr @AES_decrypt, ptr %49, align 8, !tbaa !13
  %50 = load ptr, ptr %12, align 8, !tbaa !12
  %51 = getelementptr inbounds nuw %struct.EVP_AES_KEY, ptr %50, i32 0, i32 2
  store ptr @ossl_bsaes_cbc_encrypt, ptr %51, align 8, !tbaa !15
  br label %83

52:                                               ; preds = %39, %35
  %53 = load i32, ptr getelementptr inbounds ([0 x i32], ptr @OPENSSL_ia32cap_P, i64 0, i64 1), align 4, !tbaa !3
  %54 = and i32 %53, 512
  %55 = icmp ne i32 %54, 0
  br i1 %55, label %56, label %69

56:                                               ; preds = %52
  %57 = load ptr, ptr %7, align 8, !tbaa !10
  %58 = load i32, ptr %13, align 4, !tbaa !3
  %59 = load ptr, ptr %12, align 8, !tbaa !12
  %60 = getelementptr inbounds nuw %struct.EVP_AES_KEY, ptr %59, i32 0, i32 0
  %61 = call i32 @vpaes_set_decrypt_key(ptr noundef %57, i32 noundef %58, ptr noundef %60)
  store i32 %61, ptr %10, align 4, !tbaa !3
  %62 = load ptr, ptr %12, align 8, !tbaa !12
  %63 = getelementptr inbounds nuw %struct.EVP_AES_KEY, ptr %62, i32 0, i32 1
  store ptr @vpaes_decrypt, ptr %63, align 8, !tbaa !13
  %64 = load i32, ptr %11, align 4, !tbaa !3
  %65 = icmp eq i32 %64, 2
  %66 = select i1 %65, ptr @vpaes_cbc_encrypt, ptr null
  %67 = load ptr, ptr %12, align 8, !tbaa !12
  %68 = getelementptr inbounds nuw %struct.EVP_AES_KEY, ptr %67, i32 0, i32 2
  store ptr %66, ptr %68, align 8, !tbaa !15
  br label %82

69:                                               ; preds = %52
  %70 = load ptr, ptr %7, align 8, !tbaa !10
  %71 = load i32, ptr %13, align 4, !tbaa !3
  %72 = load ptr, ptr %12, align 8, !tbaa !12
  %73 = getelementptr inbounds nuw %struct.EVP_AES_KEY, ptr %72, i32 0, i32 0
  %74 = call i32 @AES_set_decrypt_key(ptr noundef %70, i32 noundef %71, ptr noundef %73)
  store i32 %74, ptr %10, align 4, !tbaa !3
  %75 = load ptr, ptr %12, align 8, !tbaa !12
  %76 = getelementptr inbounds nuw %struct.EVP_AES_KEY, ptr %75, i32 0, i32 1
  store ptr @AES_decrypt, ptr %76, align 8, !tbaa !13
  %77 = load i32, ptr %11, align 4, !tbaa !3
  %78 = icmp eq i32 %77, 2
  %79 = select i1 %78, ptr @AES_cbc_encrypt, ptr null
  %80 = load ptr, ptr %12, align 8, !tbaa !12
  %81 = getelementptr inbounds nuw %struct.EVP_AES_KEY, ptr %80, i32 0, i32 2
  store ptr %79, ptr %81, align 8, !tbaa !15
  br label %82

82:                                               ; preds = %69, %56
  br label %83

83:                                               ; preds = %82, %42
  br label %133

84:                                               ; preds = %32, %29
  %85 = load i32, ptr getelementptr inbounds ([0 x i32], ptr @OPENSSL_ia32cap_P, i64 0, i64 1), align 4, !tbaa !3
  %86 = and i32 %85, 512
  %87 = icmp ne i32 %86, 0
  br i1 %87, label %88, label %101

88:                                               ; preds = %84
  %89 = load i32, ptr %11, align 4, !tbaa !3
  %90 = icmp eq i32 %89, 5
  br i1 %90, label %91, label %101

91:                                               ; preds = %88
  %92 = load ptr, ptr %7, align 8, !tbaa !10
  %93 = load i32, ptr %13, align 4, !tbaa !3
  %94 = load ptr, ptr %12, align 8, !tbaa !12
  %95 = getelementptr inbounds nuw %struct.EVP_AES_KEY, ptr %94, i32 0, i32 0
  %96 = call i32 @AES_set_encrypt_key(ptr noundef %92, i32 noundef %93, ptr noundef %95)
  store i32 %96, ptr %10, align 4, !tbaa !3
  %97 = load ptr, ptr %12, align 8, !tbaa !12
  %98 = getelementptr inbounds nuw %struct.EVP_AES_KEY, ptr %97, i32 0, i32 1
  store ptr @AES_encrypt, ptr %98, align 8, !tbaa !13
  %99 = load ptr, ptr %12, align 8, !tbaa !12
  %100 = getelementptr inbounds nuw %struct.EVP_AES_KEY, ptr %99, i32 0, i32 2
  store ptr @ossl_bsaes_ctr32_encrypt_blocks, ptr %100, align 8, !tbaa !15
  br label %132

101:                                              ; preds = %88, %84
  %102 = load i32, ptr getelementptr inbounds ([0 x i32], ptr @OPENSSL_ia32cap_P, i64 0, i64 1), align 4, !tbaa !3
  %103 = and i32 %102, 512
  %104 = icmp ne i32 %103, 0
  br i1 %104, label %105, label %118

105:                                              ; preds = %101
  %106 = load ptr, ptr %7, align 8, !tbaa !10
  %107 = load i32, ptr %13, align 4, !tbaa !3
  %108 = load ptr, ptr %12, align 8, !tbaa !12
  %109 = getelementptr inbounds nuw %struct.EVP_AES_KEY, ptr %108, i32 0, i32 0
  %110 = call i32 @vpaes_set_encrypt_key(ptr noundef %106, i32 noundef %107, ptr noundef %109)
  store i32 %110, ptr %10, align 4, !tbaa !3
  %111 = load ptr, ptr %12, align 8, !tbaa !12
  %112 = getelementptr inbounds nuw %struct.EVP_AES_KEY, ptr %111, i32 0, i32 1
  store ptr @vpaes_encrypt, ptr %112, align 8, !tbaa !13
  %113 = load i32, ptr %11, align 4, !tbaa !3
  %114 = icmp eq i32 %113, 2
  %115 = select i1 %114, ptr @vpaes_cbc_encrypt, ptr null
  %116 = load ptr, ptr %12, align 8, !tbaa !12
  %117 = getelementptr inbounds nuw %struct.EVP_AES_KEY, ptr %116, i32 0, i32 2
  store ptr %115, ptr %117, align 8, !tbaa !15
  br label %131

118:                                              ; preds = %101
  %119 = load ptr, ptr %7, align 8, !tbaa !10
  %120 = load i32, ptr %13, align 4, !tbaa !3
  %121 = load ptr, ptr %12, align 8, !tbaa !12
  %122 = getelementptr inbounds nuw %struct.EVP_AES_KEY, ptr %121, i32 0, i32 0
  %123 = call i32 @AES_set_encrypt_key(ptr noundef %119, i32 noundef %120, ptr noundef %122)
  store i32 %123, ptr %10, align 4, !tbaa !3
  %124 = load ptr, ptr %12, align 8, !tbaa !12
  %125 = getelementptr inbounds nuw %struct.EVP_AES_KEY, ptr %124, i32 0, i32 1
  store ptr @AES_encrypt, ptr %125, align 8, !tbaa !13
  %126 = load i32, ptr %11, align 4, !tbaa !3
  %127 = icmp eq i32 %126, 2
  %128 = select i1 %127, ptr @AES_cbc_encrypt, ptr null
  %129 = load ptr, ptr %12, align 8, !tbaa !12
  %130 = getelementptr inbounds nuw %struct.EVP_AES_KEY, ptr %129, i32 0, i32 2
  store ptr %128, ptr %130, align 8, !tbaa !15
  br label %131

131:                                              ; preds = %118, %105
  br label %132

132:                                              ; preds = %131, %91
  br label %133

133:                                              ; preds = %132, %83
  %134 = load i32, ptr %10, align 4, !tbaa !3
  %135 = icmp slt i32 %134, 0
  br i1 %135, label %136, label %137

136:                                              ; preds = %133
  call void @ERR_new()
  call void @ERR_set_debug(ptr noundef @.str, i32 noundef 2496, ptr noundef @__func__.aes_init_key)
  call void (i32, i32, ptr, ...) @ERR_set_error(i32 noundef 6, i32 noundef 143, ptr noundef null)
  store i32 0, ptr %5, align 4
  store i32 1, ptr %14, align 4
  br label %138

137:                                              ; preds = %133
  store i32 1, ptr %5, align 4
  store i32 1, ptr %14, align 4
  br label %138

138:                                              ; preds = %137, %136, %22
  call void @llvm.lifetime.end.p0(i64 4, ptr %13) #4
  call void @llvm.lifetime.end.p0(i64 8, ptr %12) #4
  call void @llvm.lifetime.end.p0(i64 4, ptr %11) #4
  call void @llvm.lifetime.end.p0(i64 4, ptr %10) #4
  %139 = load i32, ptr %5, align 4
  ret i32 %139
}