; Function Attrs: nounwind uwtable
define internal range(i32 0, 2) i32 @aes_init_key(ptr noundef %0, ptr noundef %1, ptr readnone captures(none) %2, i32 noundef %3) #2 {
  %5 = tail call ptr @EVP_CIPHER_CTX_get_cipher_data(ptr noundef %0) #8
  %6 = tail call i32 @EVP_CIPHER_CTX_get_key_length(ptr noundef %0) #8
  %7 = shl nsw i32 %6, 3
  %8 = icmp slt i32 %6, 1
  br i1 %8, label %.sink.split, label %9

9:                                                ; preds = %4
  %10 = tail call ptr @EVP_CIPHER_CTX_get0_cipher(ptr noundef %0) #8
  %11 = tail call i32 @EVP_CIPHER_get_mode(ptr noundef %10) #8
  %12 = icmp eq i32 %11, 2
  %13 = add i32 %11, -3
  %or.cond = icmp ult i32 %13, -2
  %14 = icmp ne i32 %3, 0
  %or.cond3 = or i1 %14, %or.cond
  %15 = load i32, ptr getelementptr inbounds nuw (i8, ptr @OPENSSL_ia32cap_P, i64 4), align 4, !tbaa !3
  %16 = and i32 %15, 512
  %17 = icmp ne i32 %16, 0
  br i1 %or.cond3, label %32, label %18

18:                                               ; preds = %9
  %or.cond5 = and i1 %12, %17
  br i1 %or.cond5, label %19, label %23

19:                                               ; preds = %18
  %20 = tail call i32 @AES_set_decrypt_key(ptr noundef %1, i32 noundef %7, ptr noundef %5) #8
  %21 = getelementptr inbounds nuw i8, ptr %5, i64 248
  store ptr @AES_decrypt, ptr %21, align 8, !tbaa !7
  %22 = getelementptr inbounds nuw i8, ptr %5, i64 256
  store ptr @ossl_bsaes_cbc_encrypt, ptr %22, align 8, !tbaa !10
  br label %47

23:                                               ; preds = %18
  %24 = getelementptr inbounds nuw i8, ptr %5, i64 248
  %25 = getelementptr inbounds nuw i8, ptr %5, i64 256
  br i1 %17, label %26, label %29

26:                                               ; preds = %23
  %27 = tail call i32 @vpaes_set_decrypt_key(ptr noundef %1, i32 noundef %7, ptr noundef %5) #8
  store ptr @vpaes_decrypt, ptr %24, align 8, !tbaa !7
  %28 = select i1 %12, ptr @vpaes_cbc_encrypt, ptr null
  store ptr %28, ptr %25, align 8, !tbaa !10
  br label %47

29:                                               ; preds = %23
  %30 = tail call i32 @AES_set_decrypt_key(ptr noundef %1, i32 noundef %7, ptr noundef %5) #8
  store ptr @AES_decrypt, ptr %24, align 8, !tbaa !7
  %31 = select i1 %12, ptr @AES_cbc_encrypt, ptr null
  store ptr %31, ptr %25, align 8, !tbaa !10
  br label %47

32:                                               ; preds = %9
  %33 = icmp eq i32 %11, 5
  %or.cond7 = and i1 %33, %17
  br i1 %or.cond7, label %34, label %38

34:                                               ; preds = %32
  %35 = tail call i32 @AES_set_encrypt_key(ptr noundef %1, i32 noundef %7, ptr noundef %5) #8
  %36 = getelementptr inbounds nuw i8, ptr %5, i64 248
  store ptr @AES_encrypt, ptr %36, align 8, !tbaa !7
  %37 = getelementptr inbounds nuw i8, ptr %5, i64 256
  store ptr @ossl_bsaes_ctr32_encrypt_blocks, ptr %37, align 8, !tbaa !10
  br label %47

38:                                               ; preds = %32
  %39 = getelementptr inbounds nuw i8, ptr %5, i64 248
  %40 = getelementptr inbounds nuw i8, ptr %5, i64 256
  br i1 %17, label %41, label %44

41:                                               ; preds = %38
  %42 = tail call i32 @vpaes_set_encrypt_key(ptr noundef %1, i32 noundef %7, ptr noundef %5) #8
  store ptr @vpaes_encrypt, ptr %39, align 8, !tbaa !7
  %43 = select i1 %12, ptr @vpaes_cbc_encrypt, ptr null
  store ptr %43, ptr %40, align 8, !tbaa !10
  br label %47

44:                                               ; preds = %38
  %45 = tail call i32 @AES_set_encrypt_key(ptr noundef %1, i32 noundef %7, ptr noundef %5) #8
  store ptr @AES_encrypt, ptr %39, align 8, !tbaa !7
  %46 = select i1 %12, ptr @AES_cbc_encrypt, ptr null
  store ptr %46, ptr %40, align 8, !tbaa !10
  br label %47

47:                                               ; preds = %34, %44, %41, %19, %29, %26
  %.051 = phi i32 [ %35, %34 ], [ %42, %41 ], [ %45, %44 ], [ %20, %19 ], [ %27, %26 ], [ %30, %29 ]
  %48 = icmp slt i32 %.051, 0
  br i1 %48, label %.sink.split, label %49

.sink.split:                                      ; preds = %47, %4
  %.sink53 = phi i32 [ 2411, %4 ], [ 2496, %47 ]
  %.sink = phi i32 [ 130, %4 ], [ 143, %47 ]
  tail call void @ERR_new() #8
  tail call void @ERR_set_debug(ptr noundef nonnull @.str, i32 noundef %.sink53, ptr noundef nonnull @__func__.aes_init_key) #8
  tail call void (i32, i32, ptr, ...) @ERR_set_error(i32 noundef 6, i32 noundef %.sink, ptr noundef null) #8
  br label %49

49:                                               ; preds = %.sink.split, %47
  %.0 = phi i32 [ 1, %47 ], [ 0, %.sink.split ]
  ret i32 %.0
}